; Function Attrs: inlinehint mustprogress nounwind uwtable
define internal void @_ZN12_GLOBAL__N_119DryRunCommandRunnerD2Ev(ptr noundef nonnull align 8 captures(none) dereferenceable(88) initializes((0, 8)) %0) unnamed_addr #8 align 2 personality ptr @__gxx_personality_v0 {
  store ptr getelementptr inbounds nuw inrange(-16, 56) (i8, ptr @_ZTVN12_GLOBAL__N_119DryRunCommandRunnerE, i64 16), ptr %0, align 8, !tbaa !130
  %2 = getelementptr inbounds nuw i8, ptr %0, i64 8
  %3 = load ptr, ptr %2, align 8, !tbaa !298
  %.not.i.i.i = icmp eq ptr %3, null
  br i1 %.not.i.i.i, label %_ZNSt5queueIP4EdgeSt5dequeIS1_SaIS1_EEED2Ev.exit, label %4

4:                                                ; preds = %1
  %5 = getelementptr inbounds nuw i8, ptr %0, i64 80
  %6 = getelementptr inbounds nuw i8, ptr %0, i64 48
  %7 = load ptr, ptr %6, align 8, !tbaa !303
  %8 = load ptr, ptr %5, align 8, !tbaa !304
  %9 = getelementptr inbounds nuw i8, ptr %8, i64 8
  %10 = icmp ult ptr %7, %9
  br i1 %10, label %.lr.ph.i.i.i.i, label %_ZNSt11_Deque_baseIP4EdgeSaIS1_EE16_M_destroy_nodesEPPS1_S5_.exit.i.i.i

.lr.ph.i.i.i.i:                                   ; preds = %4, %.lr.ph.i.i.i.i
  %.06.i.i.i.i = phi ptr [ %12, %.lr.ph.i.i.i.i ], [ %7, %4 ]
  %11 = load ptr, ptr %.06.i.i.i.i, align 8, !tbaa !135
  tail call void @_ZdlPvm(ptr noundef %11, i64 noundef 512) #28
  %12 = getelementptr inbounds nuw i8, ptr %.06.i.i.i.i, i64 8
  %13 = icmp ult ptr %.06.i.i.i.i, %8
  br i1 %13, label %.lr.ph.i.i.i.i, label %_ZNSt11_Deque_baseIP4EdgeSaIS1_EE16_M_destroy_nodesEPPS1_S5_.exit.loopexit.i.i.i, !llvm.loop !305

_ZNSt11_Deque_baseIP4EdgeSaIS1_EE16_M_destroy_nodesEPPS1_S5_.exit.loopexit.i.i.i: ; preds = %.lr.ph.i.i.i.i
  %.pre.i.i.i = load ptr, ptr %2, align 8, !tbaa !298
  br label %_ZNSt11_Deque_baseIP4EdgeSaIS1_EE16_M_destroy_nodesEPPS1_S5_.exit.i.i.i

_ZNSt11_Deque_baseIP4EdgeSaIS1_EE16_M_destroy_nodesEPPS1_S5_.exit.i.i.i: ; preds = %_ZNSt11_Deque_baseIP4EdgeSaIS1_EE16_M_destroy_nodesEPPS1_S5_.exit.loopexit.i.i.i, %4
  %14 = phi ptr [ %.pre.i.i.i, %_ZNSt11_Deque_baseIP4EdgeSaIS1_EE16_M_destroy_nodesEPPS1_S5_.exit.loopexit.i.i.i ], [ %3, %4 ]
  %15 = getelementptr inbounds nuw i8, ptr %0, i64 16
  %16 = load i64, ptr %15, align 8, !tbaa !306
  %17 = shl i64 %16, 3
  tail call void @_ZdlPvm(ptr noundef %14, i64 noundef %17) #28
  br label %_ZNSt5queueIP4EdgeSt5dequeIS1_SaIS1_EEED2Ev.exit

_ZNSt5queueIP4EdgeSt5dequeIS1_SaIS1_EEED2Ev.exit: ; preds = %1, %_ZNSt11_Deque_baseIP4EdgeSaIS1_EE16_M_destroy_nodesEPPS1_S5_.exit.i.i.i
  ret void
}